GAS LISTING /tmp/ccUbm2aS.s 			page 1


   1              		.file	"cpp_runtime.cpp"
   2              		.option nopic
   3              		.option norelax
   4              		.attribute arch, "rv64i2p0_m2p0_a2p0"
   5              		.attribute unaligned_access, 0
   6              		.attribute stack_align, 16
   7              		.text
   8              	.Ltext0:
   9              		.align	2
  10              		.globl	_Znwm
  12              	_Znwm:
  13              	.LFB0:
  14              		.file 1 "src/cpp_runtime.cpp"
   1:src/cpp_runtime.cpp **** #include "../lib/hw.h"
   2:src/cpp_runtime.cpp **** #include "../h/syscall_c.h"
   3:src/cpp_runtime.cpp **** 
   4:src/cpp_runtime.cpp **** // PDF p.10: the global operator new/delete must be implemented as wrappers
   5:src/cpp_runtime.cpp **** // around mem_alloc/mem_free, so all C++ dynamic allocation in user code
   6:src/cpp_runtime.cpp **** // flows through the syscall.
   7:src/cpp_runtime.cpp **** //
   8:src/cpp_runtime.cpp **** // We define every overload the linker is likely to want (scalar, array,
   9:src/cpp_runtime.cpp **** // sized C++14 forms) so that any user-code shape compiles.
  10:src/cpp_runtime.cpp **** //
  11:src/cpp_runtime.cpp **** // NOTE: kernel code must NEVER use `new` — that would mean the kernel
  12:src/cpp_runtime.cpp **** // calling its own syscall. Kernel internals use MemoryAllocator::alloc
  13:src/cpp_runtime.cpp **** // directly + placement-new for construction.
  14:src/cpp_runtime.cpp **** 
  15:src/cpp_runtime.cpp **** void* operator new(size_t n)                       { return mem_alloc(n); }
  15              		.loc 1 15 52
  16              		.cfi_startproc
  17              	.LVL0:
  18 0000 130101FF 		addi	sp,sp,-16
  19              		.cfi_def_cfa_offset 16
  20 0004 23341100 		sd	ra,8(sp)
  21 0008 23308100 		sd	s0,0(sp)
  22              		.cfi_offset 1, -8
  23              		.cfi_offset 8, -16
  24 000c 13040101 		addi	s0,sp,16
  25              		.cfi_def_cfa 8, 0
  26              		.loc 1 15 54
  27              		.loc 1 15 70 is_stmt 0
  28 0010 97000000 		call	mem_alloc
  28      E7800000 
  29              	.LVL1:
  30              		.loc 1 15 75
  31 0018 83308100 		ld	ra,8(sp)
  32              		.cfi_restore 1
  33 001c 03340100 		ld	s0,0(sp)
  34              		.cfi_restore 8
  35              		.cfi_def_cfa 2, 16
  36 0020 13010101 		addi	sp,sp,16
  37              		.cfi_def_cfa_offset 0
  38 0024 67800000 		jr	ra
  39              		.cfi_endproc
  40              	.LFE0:
  42              		.align	2
  43              		.globl	_Znam
GAS LISTING /tmp/ccUbm2aS.s 			page 2


  45              	_Znam:
  46              	.LFB1:
  16:src/cpp_runtime.cpp **** void* operator new[](size_t n)                     { return mem_alloc(n); }
  47              		.loc 1 16 52 is_stmt 1
  48              		.cfi_startproc
  49              	.LVL2:
  50 0028 130101FF 		addi	sp,sp,-16
  51              		.cfi_def_cfa_offset 16
  52 002c 23341100 		sd	ra,8(sp)
  53 0030 23308100 		sd	s0,0(sp)
  54              		.cfi_offset 1, -8
  55              		.cfi_offset 8, -16
  56 0034 13040101 		addi	s0,sp,16
  57              		.cfi_def_cfa 8, 0
  58              		.loc 1 16 54
  59              		.loc 1 16 70 is_stmt 0
  60 0038 97000000 		call	mem_alloc
  60      E7800000 
  61              	.LVL3:
  62              		.loc 1 16 75
  63 0040 83308100 		ld	ra,8(sp)
  64              		.cfi_restore 1
  65 0044 03340100 		ld	s0,0(sp)
  66              		.cfi_restore 8
  67              		.cfi_def_cfa 2, 16
  68 0048 13010101 		addi	sp,sp,16
  69              		.cfi_def_cfa_offset 0
  70 004c 67800000 		jr	ra
  71              		.cfi_endproc
  72              	.LFE1:
  74              		.align	2
  75              		.globl	_ZdlPv
  77              	_ZdlPv:
  78              	.LFB2:
  17:src/cpp_runtime.cpp **** 
  18:src/cpp_runtime.cpp **** void  operator delete(void* p) noexcept            { mem_free(p); }
  79              		.loc 1 18 52 is_stmt 1
  80              		.cfi_startproc
  81              		.cfi_personality 0x9b,DW.ref.__gxx_personality_v0
  82              		.cfi_lsda 0x1b,.LLSDA2
  83              	.LVL4:
  84 0050 130101FF 		addi	sp,sp,-16
  85              		.cfi_def_cfa_offset 16
  86 0054 23341100 		sd	ra,8(sp)
  87 0058 23308100 		sd	s0,0(sp)
  88              		.cfi_offset 1, -8
  89              		.cfi_offset 8, -16
  90 005c 13040101 		addi	s0,sp,16
  91              		.cfi_def_cfa 8, 0
  92              		.loc 1 18 54
  93              		.loc 1 18 62 is_stmt 0
  94 0060 97000000 		call	mem_free
  94      E7800000 
  95              	.LVL5:
  96              		.loc 1 18 67
  97 0068 83308100 		ld	ra,8(sp)
  98              		.cfi_restore 1
GAS LISTING /tmp/ccUbm2aS.s 			page 3


  99 006c 03340100 		ld	s0,0(sp)
 100              		.cfi_restore 8
 101              		.cfi_def_cfa 2, 16
 102 0070 13010101 		addi	sp,sp,16
 103              		.cfi_def_cfa_offset 0
 104 0074 67800000 		jr	ra
 105              		.cfi_endproc
 106              	.LFE2:
 107              		.globl	__gxx_personality_v0
 108              		.section	.gcc_except_table,"aw",@progbits
 109              	.LLSDA2:
 110 0000 FF       		.byte	0xff
 111 0001 FF       		.byte	0xff
 112 0002 03       		.byte	0x3
 113 0003 00       		.byte	0
 114              		.text
 116              		.align	2
 117              		.globl	_ZdaPv
 119              	_ZdaPv:
 120              	.LFB3:
  19:src/cpp_runtime.cpp **** void  operator delete[](void* p) noexcept          { mem_free(p); }
 121              		.loc 1 19 52 is_stmt 1
 122              		.cfi_startproc
 123              		.cfi_personality 0x9b,DW.ref.__gxx_personality_v0
 124              		.cfi_lsda 0x1b,.LLSDA3
 125              	.LVL6:
 126 0078 130101FF 		addi	sp,sp,-16
 127              		.cfi_def_cfa_offset 16
 128 007c 23341100 		sd	ra,8(sp)
 129 0080 23308100 		sd	s0,0(sp)
 130              		.cfi_offset 1, -8
 131              		.cfi_offset 8, -16
 132 0084 13040101 		addi	s0,sp,16
 133              		.cfi_def_cfa 8, 0
 134              		.loc 1 19 54
 135              		.loc 1 19 62 is_stmt 0
 136 0088 97000000 		call	mem_free
 136      E7800000 
 137              	.LVL7:
 138              		.loc 1 19 67
 139 0090 83308100 		ld	ra,8(sp)
 140              		.cfi_restore 1
 141 0094 03340100 		ld	s0,0(sp)
 142              		.cfi_restore 8
 143              		.cfi_def_cfa 2, 16
 144 0098 13010101 		addi	sp,sp,16
 145              		.cfi_def_cfa_offset 0
 146 009c 67800000 		jr	ra
 147              		.cfi_endproc
 148              	.LFE3:
 149              		.section	.gcc_except_table
 150              	.LLSDA3:
 151 0004 FF       		.byte	0xff
 152 0005 FF       		.byte	0xff
 153 0006 03       		.byte	0x3
 154 0007 00       		.byte	0
 155              		.text
GAS LISTING /tmp/ccUbm2aS.s 			page 4


 157              		.align	2
 158              		.globl	_ZdlPvm
 160              	_ZdlPvm:
 161              	.LFB4:
  20:src/cpp_runtime.cpp **** 
  21:src/cpp_runtime.cpp **** // C++14 sized-delete forms. Required when classes have non-trivial dtors.
  22:src/cpp_runtime.cpp **** void  operator delete(void* p, size_t) noexcept    { mem_free(p); }
 162              		.loc 1 22 52 is_stmt 1
 163              		.cfi_startproc
 164              		.cfi_personality 0x9b,DW.ref.__gxx_personality_v0
 165              		.cfi_lsda 0x1b,.LLSDA4
 166              	.LVL8:
 167 00a0 130101FF 		addi	sp,sp,-16
 168              		.cfi_def_cfa_offset 16
 169 00a4 23341100 		sd	ra,8(sp)
 170 00a8 23308100 		sd	s0,0(sp)
 171              		.cfi_offset 1, -8
 172              		.cfi_offset 8, -16
 173 00ac 13040101 		addi	s0,sp,16
 174              		.cfi_def_cfa 8, 0
 175              		.loc 1 22 54
 176              		.loc 1 22 62 is_stmt 0
 177 00b0 97000000 		call	mem_free
 177      E7800000 
 178              	.LVL9:
 179              		.loc 1 22 67
 180 00b8 83308100 		ld	ra,8(sp)
 181              		.cfi_restore 1
 182 00bc 03340100 		ld	s0,0(sp)
 183              		.cfi_restore 8
 184              		.cfi_def_cfa 2, 16
 185 00c0 13010101 		addi	sp,sp,16
 186              		.cfi_def_cfa_offset 0
 187 00c4 67800000 		jr	ra
 188              		.cfi_endproc
 189              	.LFE4:
 190              		.section	.gcc_except_table
 191              	.LLSDA4:
 192 0008 FF       		.byte	0xff
 193 0009 FF       		.byte	0xff
 194 000a 03       		.byte	0x3
 195 000b 00       		.byte	0
 196              		.text
 198              		.align	2
 199              		.globl	_ZdaPvm
 201              	_ZdaPvm:
 202              	.LFB5:
  23:src/cpp_runtime.cpp **** void  operator delete[](void* p, size_t) noexcept  { mem_free(p); }
 203              		.loc 1 23 52 is_stmt 1
 204              		.cfi_startproc
 205              		.cfi_personality 0x9b,DW.ref.__gxx_personality_v0
 206              		.cfi_lsda 0x1b,.LLSDA5
 207              	.LVL10:
 208 00c8 130101FF 		addi	sp,sp,-16
 209              		.cfi_def_cfa_offset 16
 210 00cc 23341100 		sd	ra,8(sp)
 211 00d0 23308100 		sd	s0,0(sp)
GAS LISTING /tmp/ccUbm2aS.s 			page 5


 212              		.cfi_offset 1, -8
 213              		.cfi_offset 8, -16
 214 00d4 13040101 		addi	s0,sp,16
 215              		.cfi_def_cfa 8, 0
 216              		.loc 1 23 54
 217              		.loc 1 23 62 is_stmt 0
 218 00d8 97000000 		call	mem_free
 218      E7800000 
 219              	.LVL11:
 220              		.loc 1 23 67
 221 00e0 83308100 		ld	ra,8(sp)
 222              		.cfi_restore 1
 223 00e4 03340100 		ld	s0,0(sp)
 224              		.cfi_restore 8
 225              		.cfi_def_cfa 2, 16
 226 00e8 13010101 		addi	sp,sp,16
 227              		.cfi_def_cfa_offset 0
 228 00ec 67800000 		jr	ra
 229              		.cfi_endproc
 230              	.LFE5:
 231              		.section	.gcc_except_table
 232              	.LLSDA5:
 233 000c FF       		.byte	0xff
 234 000d FF       		.byte	0xff
 235 000e 03       		.byte	0x3
 236 000f 00       		.byte	0
 237              		.text
 239              	.Letext0:
 240              		.file 2 "src/../lib/hw.h"
 241              		.file 3 "src/../h/syscall_c.h"
 985              		.align	3
 988              	DW.ref.__gxx_personality_v0:
 989 0000 00000000 		.dword	__gxx_personality_v0
 989      00000000 
 990              		.ident	"GCC: () 9.3.0"
GAS LISTING /tmp/ccUbm2aS.s 			page 6

