GAS LISTING /tmp/ccJx3SeG.s 			page 1


   1              		.file	"syscall.cpp"
   2              		.option nopic
   3              		.option norelax
   4              		.attribute arch, "rv64i2p0_m2p0_a2p0"
   5              		.attribute unaligned_access, 0
   6              		.attribute stack_align, 16
   7              		.text
   8              	.Ltext0:
   9              		.align	2
  10              		.globl	mem_alloc
  12              	mem_alloc:
  13              	.LFB0:
  14              		.file 1 "src/syscall.cpp"
   1:src/syscall.cpp **** #include "../h/syscall_c.h"
   2:src/syscall.cpp **** #include "../h/syscall_abi.hpp"
   3:src/syscall.cpp **** #include "../lib/hw.h"
   4:src/syscall.cpp **** 
   5:src/syscall.cpp **** // C API: user-mode wrappers that issue ecall and return the kernel's reply.
   6:src/syscall.cpp **** // PDF p.8: the ABI mem_alloc takes size IN BLOCKS; this wrapper does the
   7:src/syscall.cpp **** // bytes->blocks conversion before the trap.
   8:src/syscall.cpp **** //
   9:src/syscall.cpp **** // Inline-asm idiom: use register-named locals and "+r"(a0) so the compiler
  10:src/syscall.cpp **** // keeps the syscall number and the return value in the same physical register.
  11:src/syscall.cpp **** 
  12:src/syscall.cpp **** extern "C" void* mem_alloc(size_t size) {
  15              		.loc 1 12 41
  16              		.cfi_startproc
  17              	.LVL0:
  18 0000 130101FF 		addi	sp,sp,-16
  19              		.cfi_def_cfa_offset 16
  20 0004 23348100 		sd	s0,8(sp)
  21              		.cfi_offset 8, -8
  22 0008 13040101 		addi	s0,sp,16
  23              		.cfi_def_cfa 8, 0
  13:src/syscall.cpp ****     if (size == 0) return nullptr;
  24              		.loc 1 13 5
  25 000c 63000502 		beqz	a0,.L3
  14:src/syscall.cpp ****     size_t blocks = (size + MEM_BLOCK_SIZE - 1) / MEM_BLOCK_SIZE;
  26              		.loc 1 14 5
  27              		.loc 1 14 44 is_stmt 0
  28 0010 9305F503 		addi	a1,a0,63
  29              	.LVL1:
  15:src/syscall.cpp **** 
  16:src/syscall.cpp ****     register uint64 a0 asm("a0") = SYS_MEM_ALLOC;
  30              		.loc 1 16 5 is_stmt 1
  31              		.loc 1 16 21 is_stmt 0
  32 0014 13051000 		li	a0,1
  33              	.LVL2:
  17:src/syscall.cpp ****     register uint64 a1 asm("a1") = blocks;
  34              		.loc 1 17 5 is_stmt 1
  35              		.loc 1 17 21 is_stmt 0
  36 0018 93D56500 		srli	a1,a1,6
  37              	.LVL3:
  18:src/syscall.cpp ****     asm volatile ("ecall"
  38              		.loc 1 18 5 is_stmt 1
  19:src/syscall.cpp ****                   : "+r"(a0)
  20:src/syscall.cpp ****                   : "r"(a1)
GAS LISTING /tmp/ccJx3SeG.s 			page 2


  21:src/syscall.cpp ****                   : "memory");
  39              		.loc 1 21 30 is_stmt 0
  40              	 #APP
  41              	# 21 "src/syscall.cpp" 1
  22              	    return (void*)a0;
  42              		ecall
  43              	# 0 "" 2
  44              		.loc 1 22 5 is_stmt 1
  45              	.LVL4:
  46              	 #NO_APP
  47              	.L1:
  23:src/syscall.cpp **** }
  48              		.loc 1 23 1 is_stmt 0
  49 0020 03348100 		ld	s0,8(sp)
  50              		.cfi_remember_state
  51              		.cfi_restore 8
  52              		.cfi_def_cfa 2, 16
  53 0024 13010101 		addi	sp,sp,16
  54              		.cfi_def_cfa_offset 0
  55 0028 67800000 		jr	ra
  56              	.LVL5:
  57              	.L3:
  58              		.cfi_restore_state
  13:src/syscall.cpp ****     size_t blocks = (size + MEM_BLOCK_SIZE - 1) / MEM_BLOCK_SIZE;
  59              		.loc 1 13 27
  60 002c 13050000 		li	a0,0
  61              	.LVL6:
  62 0030 6FF01FFF 		j	.L1
  63              		.cfi_endproc
  64              	.LFE0:
  66              		.align	2
  67              		.globl	mem_free
  69              	mem_free:
  70              	.LFB1:
  24:src/syscall.cpp **** 
  25:src/syscall.cpp **** extern "C" int mem_free(void* ptr) {
  71              		.loc 1 25 36 is_stmt 1
  72              		.cfi_startproc
  73              	.LVL7:
  74 0034 130101FF 		addi	sp,sp,-16
  75              		.cfi_def_cfa_offset 16
  76 0038 23348100 		sd	s0,8(sp)
  77              		.cfi_offset 8, -8
  78 003c 13040101 		addi	s0,sp,16
  79              		.cfi_def_cfa 8, 0
  80 0040 93050500 		mv	a1,a0
  26:src/syscall.cpp ****     register uint64 a0 asm("a0") = SYS_MEM_FREE;
  81              		.loc 1 26 5
  82              		.loc 1 26 21 is_stmt 0
  83 0044 13052000 		li	a0,2
  84              	.LVL8:
  27:src/syscall.cpp ****     register uint64 a1 asm("a1") = (uint64)ptr;
  85              		.loc 1 27 5 is_stmt 1
  28:src/syscall.cpp ****     asm volatile ("ecall"
  86              		.loc 1 28 5
  29:src/syscall.cpp ****                   : "+r"(a0)
  30:src/syscall.cpp ****                   : "r"(a1)
GAS LISTING /tmp/ccJx3SeG.s 			page 3


  31:src/syscall.cpp ****                   : "memory");
  87              		.loc 1 31 30 is_stmt 0
  88              	 #APP
  89              	# 31 "src/syscall.cpp" 1
  32              	    return (int)a0;
  90              		ecall
  91              	# 0 "" 2
  92              		.loc 1 32 5 is_stmt 1
  33:src/syscall.cpp **** }
  93              		.loc 1 33 1 is_stmt 0
  94              	 #NO_APP
  95 004c 1B050500 		sext.w	a0,a0
  96 0050 03348100 		ld	s0,8(sp)
  97              		.cfi_restore 8
  98              		.cfi_def_cfa 2, 16
  99 0054 13010101 		addi	sp,sp,16
 100              		.cfi_def_cfa_offset 0
 101 0058 67800000 		jr	ra
 102              		.cfi_endproc
 103              	.LFE1:
 105              	.Letext0:
 106              		.file 2 "src/../h/../lib/hw.h"
GAS LISTING /tmp/ccJx3SeG.s 			page 4

