GAS LISTING /tmp/ccT6neYC.s 			page 1


   1              		.file	"trap.cpp"
   2              		.option nopic
   3              		.option norelax
   4              		.attribute arch, "rv64i2p0_m2p0_a2p0"
   5              		.attribute unaligned_access, 0
   6              		.attribute stack_align, 16
   7              		.text
   8              	.Ltext0:
   9              		.section	.rodata.str1.8,"aMS",@progbits,1
  10              		.align	3
  11              	.LC0:
  12 0000 0A756E68 		.string	"\nunhandled trap: scause="
  12      616E646C 
  12      65642074 
  12      7261703A 
  12      20736361 
  13 0019 00000000 		.align	3
  13      000000
  14              	.LC1:
  15 0020 20736570 		.string	" sepc="
  15      633D00
  16 0027 00       		.align	3
  17              	.LC2:
  18 0028 74726170 		.string	"trap"
  18      00
  19              		.text
  20              		.align	2
  21              		.globl	c_trap_handler
  23              	c_trap_handler:
  24              	.LFB0:
  25              		.file 1 "src/trap.cpp"
   1:src/trap.cpp  **** #include "../lib/hw.h"
   2:src/trap.cpp  **** #include "../h/riscv.hpp"
   3:src/trap.cpp  **** #include "../h/syscall_abi.hpp"
   4:src/trap.cpp  **** #include "../h/debug.hpp"
   5:src/trap.cpp  **** #include "../h/MemoryAllocator.hpp"
   6:src/trap.cpp  **** 
   7:src/trap.cpp  **** // Frame layout MUST match trap_entry.S exactly: 16 caller-saved registers, in order.
   8:src/trap.cpp  **** struct TrapFrame {
   9:src/trap.cpp  ****     uint64 ra;
  10:src/trap.cpp  ****     uint64 t0, t1, t2, t3, t4, t5, t6;
  11:src/trap.cpp  ****     uint64 a0, a1, a2, a3, a4, a5, a6, a7;
  12:src/trap.cpp  **** };
  13:src/trap.cpp  **** 
  14:src/trap.cpp  **** // Dispatcher for ecall / exception / interrupt. For Task 1 only ecall is wired.
  15:src/trap.cpp  **** extern "C" void c_trap_handler(TrapFrame* f) {
  26              		.loc 1 15 46
  27              		.cfi_startproc
  28              	.LVL0:
  29 0000 130101FD 		addi	sp,sp,-48
  30              		.cfi_def_cfa_offset 48
  31 0004 23341102 		sd	ra,40(sp)
  32 0008 23308102 		sd	s0,32(sp)
  33 000c 233C9100 		sd	s1,24(sp)
  34 0010 23382101 		sd	s2,16(sp)
  35 0014 23343101 		sd	s3,8(sp)
  36              		.cfi_offset 1, -8
GAS LISTING /tmp/ccT6neYC.s 			page 2


  37              		.cfi_offset 8, -16
  38              		.cfi_offset 9, -24
  39              		.cfi_offset 18, -32
  40              		.cfi_offset 19, -40
  41 0018 13040103 		addi	s0,sp,48
  42              		.cfi_def_cfa 8, 0
  16:src/trap.cpp  ****     uint64 cause = READ_CSR(scause);
  43              		.loc 1 16 5
  44              	.LBB2:
  45              		.loc 1 16 20
  46              		.loc 1 16 20
  47              	 #APP
  48              	# 16 "src/trap.cpp" 1
  17              	    uint64 pc    = READ_CSR(sepc);
  49              		csrr s3, scause
  50              	# 0 "" 2
  51              	.LVL1:
  16:src/trap.cpp  ****     uint64 cause = READ_CSR(scause);
  52              		.loc 1 16 20
  53              	 #NO_APP
  54              	.LBE2:
  55              		.loc 1 17 5
  56              	.LBB3:
  57              		.loc 1 17 20
  58              		.loc 1 17 20
  59              	 #APP
  60              	# 17 "src/trap.cpp" 1
  18              	
  61              		csrr s2, sepc
  62              	# 0 "" 2
  63              	.LVL2:
  17:src/trap.cpp  **** 
  64              		.loc 1 17 20
  65              	 #NO_APP
  66              	.LBE3:
  19:src/trap.cpp  ****     if (cause == SCAUSE_ECALL_U || cause == SCAUSE_ECALL_S) {
  67              		.loc 1 19 5
  68              	.LBB4:
  69              		.loc 1 19 33 is_stmt 0
  70 0024 138789FF 		addi	a4,s3,-8
  71              		.loc 1 19 5
  72 0028 93071000 		li	a5,1
  73 002c 63EAE706 		bgtu	a4,a5,.L2
  74 0030 93040500 		mv	s1,a0
  75              	.LBB5:
  20:src/trap.cpp  ****         // Syscall: dispatch by a0, result goes back in a0.
  21:src/trap.cpp  ****         switch (f->a0) {
  76              		.loc 1 21 9 is_stmt 1
  77              	.LBB6:
  78              		.loc 1 21 20 is_stmt 0
  79 0034 83370504 		ld	a5,64(a0)
  80              		.loc 1 21 9
  81 0038 13071000 		li	a4,1
  82 003c 638CE700 		beq	a5,a4,.L3
  83 0040 13072000 		li	a4,2
  84 0044 6384E704 		beq	a5,a4,.L4
  85              	.LBB7:
GAS LISTING /tmp/ccT6neYC.s 			page 3


  22:src/trap.cpp  ****             case SYS_MEM_ALLOC: {
  23:src/trap.cpp  ****                 // ABI: a1 = size IN BLOCKS (PDF p.8). Convert back to bytes for
  24:src/trap.cpp  ****                 // the allocator's public API and let it re-round (header etc).
  25:src/trap.cpp  ****                 size_t bytes = (size_t)f->a1 * MEM_BLOCK_SIZE;
  26:src/trap.cpp  ****                 f->a0 = (uint64)MemoryAllocator::alloc(bytes);
  27:src/trap.cpp  ****                 break;
  28:src/trap.cpp  ****             }
  29:src/trap.cpp  ****             case SYS_MEM_FREE: {
  30:src/trap.cpp  ****                 f->a0 = (uint64)MemoryAllocator::free((void*)f->a1);
  31:src/trap.cpp  ****                 break;
  32:src/trap.cpp  ****             }
  33:src/trap.cpp  ****             default:
  86              		.loc 1 33 13 is_stmt 1
  34:src/trap.cpp  ****                 // Unknown syscall: signal error. (-1 in a0, sign-extended.)
  35:src/trap.cpp  ****                 f->a0 = (uint64)-1;
  87              		.loc 1 35 17
  88              		.loc 1 35 23 is_stmt 0
  89 0048 9307F0FF 		li	a5,-1
  90 004c 2330F504 		sd	a5,64(a0)
  36:src/trap.cpp  ****                 break;
  91              		.loc 1 36 17 is_stmt 1
  92 0050 6F008001 		j	.L6
  93              	.L3:
  22:src/trap.cpp  ****             case SYS_MEM_ALLOC: {
  94              		.loc 1 22 13
  22:src/trap.cpp  ****             case SYS_MEM_ALLOC: {
  95              		.loc 1 22 33
  96              	.LBB8:
  25:src/trap.cpp  ****                 f->a0 = (uint64)MemoryAllocator::alloc(bytes);
  97              		.loc 1 25 17
  25:src/trap.cpp  ****                 f->a0 = (uint64)MemoryAllocator::alloc(bytes);
  98              		.loc 1 25 43 is_stmt 0
  99 0054 03358504 		ld	a0,72(a0)
 100              	.LVL3:
  26:src/trap.cpp  ****                 break;
 101              		.loc 1 26 17 is_stmt 1
  26:src/trap.cpp  ****                 break;
 102              		.loc 1 26 55 is_stmt 0
 103 0058 13156500 		slli	a0,a0,6
 104              	.LVL4:
 105 005c 97000000 		call	_ZN15MemoryAllocator5allocEm
 105      E7800000 
 106              	.LVL5:
  26:src/trap.cpp  ****                 break;
 107              		.loc 1 26 23
 108 0064 23B0A404 		sd	a0,64(s1)
  27:src/trap.cpp  ****             }
 109              		.loc 1 27 17 is_stmt 1
 110              	.L6:
 111              	.LBE8:
 112              	.LBE7:
 113              	.LBE6:
  37:src/trap.cpp  ****         }
  38:src/trap.cpp  ****         // Step past the ecall instruction so sret resumes after it.
  39:src/trap.cpp  ****         WRITE_CSR(sepc, pc + 4);
 114              		.loc 1 39 9
 115              	.LBB10:
GAS LISTING /tmp/ccT6neYC.s 			page 4


 116              		.loc 1 39 9
 117 0068 13094900 		addi	s2,s2,4
 118              	.LVL6:
 119              		.loc 1 39 9
 120              	 #APP
 121              	# 39 "src/trap.cpp" 1
  40              	        return;
 122              		csrw sepc, s2
 123              	# 0 "" 2
 124              	 #NO_APP
 125              	.LBE10:
 126              		.loc 1 40 9
 127              	.LBE5:
 128              	.LBE4:
  41:src/trap.cpp  ****     }
  42:src/trap.cpp  **** 
  43:src/trap.cpp  ****     // Anything else is unexpected during Task 1 — halt loudly.
  44:src/trap.cpp  ****     kputs("\nunhandled trap: scause="); kputhex(cause);
  45:src/trap.cpp  ****     kputs(" sepc=");                    kputhex(pc);
  46:src/trap.cpp  ****     kputc('\n');
  47:src/trap.cpp  ****     kpanic("trap");
  48:src/trap.cpp  **** }
 129              		.loc 1 48 1 is_stmt 0
 130 0070 83308102 		ld	ra,40(sp)
 131              		.cfi_remember_state
 132              		.cfi_restore 1
 133 0074 03340102 		ld	s0,32(sp)
 134              		.cfi_restore 8
 135              		.cfi_def_cfa 2, 48
 136 0078 83348101 		ld	s1,24(sp)
 137              		.cfi_restore 9
 138              	.LVL7:
 139 007c 03390101 		ld	s2,16(sp)
 140              		.cfi_restore 18
 141              	.LVL8:
 142 0080 83398100 		ld	s3,8(sp)
 143              		.cfi_restore 19
 144              	.LVL9:
 145 0084 13010103 		addi	sp,sp,48
 146              		.cfi_def_cfa_offset 0
 147 0088 67800000 		jr	ra
 148              	.LVL10:
 149              	.L4:
 150              		.cfi_restore_state
 151              	.LBB13:
 152              	.LBB12:
 153              	.LBB11:
 154              	.LBB9:
  29:src/trap.cpp  ****                 f->a0 = (uint64)MemoryAllocator::free((void*)f->a1);
 155              		.loc 1 29 13 is_stmt 1
  29:src/trap.cpp  ****                 f->a0 = (uint64)MemoryAllocator::free((void*)f->a1);
 156              		.loc 1 29 32
  30:src/trap.cpp  ****                 break;
 157              		.loc 1 30 17
  30:src/trap.cpp  ****                 break;
 158              		.loc 1 30 54 is_stmt 0
 159 008c 03358504 		ld	a0,72(a0)
GAS LISTING /tmp/ccT6neYC.s 			page 5


 160 0090 97000000 		call	_ZN15MemoryAllocator4freeEPv
 160      E7800000 
 161              	.LVL11:
  30:src/trap.cpp  ****                 break;
 162              		.loc 1 30 23
 163 0098 23B0A404 		sd	a0,64(s1)
  31:src/trap.cpp  ****             }
 164              		.loc 1 31 17 is_stmt 1
 165 009c 6FF0DFFC 		j	.L6
 166              	.LVL12:
 167              	.L2:
 168              	.LBE9:
 169              	.LBE11:
 170              	.LBE12:
 171              	.LBE13:
  44:src/trap.cpp  ****     kputs(" sepc=");                    kputhex(pc);
 172              		.loc 1 44 5
  44:src/trap.cpp  ****     kputs(" sepc=");                    kputhex(pc);
 173              		.loc 1 44 10 is_stmt 0
 174 00a0 17050000 		lla	a0,.LC0
 174      13050500 
 175              	.LVL13:
 176 00a8 97000000 		call	kputs
 176      E7800000 
 177              	.LVL14:
  44:src/trap.cpp  ****     kputs(" sepc=");                    kputhex(pc);
 178              		.loc 1 44 41 is_stmt 1
  44:src/trap.cpp  ****     kputs(" sepc=");                    kputhex(pc);
 179              		.loc 1 44 48 is_stmt 0
 180 00b0 13850900 		mv	a0,s3
 181 00b4 97000000 		call	kputhex
 181      E7800000 
 182              	.LVL15:
  45:src/trap.cpp  ****     kputc('\n');
 183              		.loc 1 45 5 is_stmt 1
  45:src/trap.cpp  ****     kputc('\n');
 184              		.loc 1 45 10 is_stmt 0
 185 00bc 17050000 		lla	a0,.LC1
 185      13050500 
 186 00c4 97000000 		call	kputs
 186      E7800000 
 187              	.LVL16:
  45:src/trap.cpp  ****     kputc('\n');
 188              		.loc 1 45 41 is_stmt 1
  45:src/trap.cpp  ****     kputc('\n');
 189              		.loc 1 45 48 is_stmt 0
 190 00cc 13050900 		mv	a0,s2
 191 00d0 97000000 		call	kputhex
 191      E7800000 
 192              	.LVL17:
  46:src/trap.cpp  ****     kpanic("trap");
 193              		.loc 1 46 5 is_stmt 1
  46:src/trap.cpp  ****     kpanic("trap");
 194              		.loc 1 46 10 is_stmt 0
 195 00d8 1305A000 		li	a0,10
 196 00dc 97000000 		call	kputc
 196      E7800000 
GAS LISTING /tmp/ccT6neYC.s 			page 6


 197              	.LVL18:
  47:src/trap.cpp  **** }
 198              		.loc 1 47 5 is_stmt 1
  47:src/trap.cpp  **** }
 199              		.loc 1 47 11 is_stmt 0
 200 00e4 17050000 		lla	a0,.LC2
 200      13050500 
 201 00ec 97000000 		call	kpanic
 201      E7800000 
 202              	.LVL19:
 203              		.cfi_endproc
 204              	.LFE0:
 206              	.Letext0:
 207              		.file 2 "src/../lib/hw.h"
 208              		.file 3 "src/../h/MemoryAllocator.hpp"
 209              		.file 4 "src/../h/debug.hpp"
GAS LISTING /tmp/ccT6neYC.s 			page 7

